; Function Attrs: nounwind uwtable
define hidden void @phpdbg_print_opcodes_class(ptr noundef %0) local_unnamed_addr #0 {
  %2 = alloca ptr, align 8
  call void @llvm.lifetime.start.p0(i64 8, ptr nonnull %2) #11
  %3 = tail call i64 @strlen(ptr noundef nonnull dereferenceable(1) %0) #13
  %4 = trunc i64 %3 to i32
  %5 = call i32 @phpdbg_safe_class_lookup(ptr noundef nonnull %0, i32 noundef %4, ptr noundef nonnull %2) #11
  %.not = icmp eq i32 %5, 0
  br i1 %.not, label %9, label %6

6:                                                ; preds = %1
  %7 = load i32, ptr getelementptr inbounds nuw (i8, ptr @phpdbg_globals, i64 1508), align 4, !tbaa !40
  %8 = call i32 (i32, i32, ptr, ...) @phpdbg_print(i32 noundef 1, i32 noundef %7, ptr noundef nonnull @.str.27, ptr noundef nonnull %0) #11
  br label %11

9:                                                ; preds = %1
  %10 = load ptr, ptr %2, align 8, !tbaa !88
  call fastcc void @phpdbg_print_opcodes_ce(ptr noundef %10)
  br label %11

11:                                               ; preds = %9, %6
  call void @llvm.lifetime.end.p0(i64 8, ptr nonnull %2) #11
  ret void
}